target datalayout = "e-m:e-p270:32:32-p271:32:32-p272:64:64-i64:64-i128:128-f80:128-n8:16:32:64-S128"
target triple = "x86_64-pc-linux-gnu"

%"class.pugi::xml_node" = type { ptr }
%"struct.pugi::xml_node_struct" = type { i64, ptr, ptr, ptr, ptr, ptr, ptr, ptr }
%"class.pugi::xml_text" = type { ptr }

@.str.171 = private unnamed_addr constant [6 x i8] c"float\00", align 1

; Function Attrs: inlinehint mustprogress nounwind uwtable
define linkonce_odr hidden noundef zeroext i1 @_ZN4pugi4impl12is_text_nodeEPNS_15xml_node_structE(ptr noundef %0) #3 comdat {
  %2 = alloca ptr, align 8
  %3 = alloca i32, align 4
  store ptr %0, ptr %2, align 8
  call void @llvm.lifetime.start.p0(i64 4, ptr %3) #4
  %4 = load ptr, ptr %2, align 8
  %5 = getelementptr inbounds nuw %"struct.pugi::xml_node_struct", ptr %4, i32 0, i32 0
  %6 = load i64, ptr %5, align 8
  %7 = and i64 %6, 15
  %8 = trunc i64 %7 to i32
  store i32 %8, ptr %3, align 4
  %9 = load i32, ptr %3, align 4
  %10 = icmp eq i32 %9, 3
  br i1 %10, label %14, label %11

11:                                               ; preds = %1
  %12 = load i32, ptr %3, align 4
  %13 = icmp eq i32 %12, 4
  br label %14

14:                                               ; preds = %11, %1
  %15 = phi i1 [ true, %1 ], [ %13, %11 ]
  call void @llvm.lifetime.end.p0(i64 4, ptr %3) #4
  ret i1 %15
}

; Function Attrs: inlinehint mustprogress nounwind uwtable
define linkonce_odr hidden noundef float @_ZN4pugi4impl15get_value_floatEPKc(ptr noundef %0) #3 comdat {
  %2 = alloca ptr, align 8
  store ptr %0, ptr %2, align 8
  %3 = load ptr, ptr %2, align 8
  %4 = call double @strtod(ptr noundef %3, ptr noundef null) #4
  %5 = fptrunc double %4 to float
  ret float %5
}

; Function Attrs: inlinehint mustprogress uwtable
define linkonce_odr hidden noundef ptr @_ZNK4pugi8xml_text5_dataEv(ptr noundef nonnull align 8 dereferenceable(8) %0) #2 comdat align 2 {
  %2 = alloca ptr, align 8
  %3 = alloca ptr, align 8
  %4 = alloca ptr, align 8
  %5 = alloca i32, align 4
  store ptr %0, ptr %3, align 8
  %6 = load ptr, ptr %3, align 8
  %7 = getelementptr inbounds nuw %"class.pugi::xml_text", ptr %6, i32 0, i32 0
  %8 = load ptr, ptr %7, align 8
  %9 = icmp ne ptr %8, null
  br i1 %9, label %10, label %14

10:                                               ; preds = %1
  %11 = getelementptr inbounds nuw %"class.pugi::xml_text", ptr %6, i32 0, i32 0
  %12 = load ptr, ptr %11, align 8
  %13 = call noundef zeroext i1 @_ZN4pugi4impl12is_text_nodeEPNS_15xml_node_structE(ptr noundef %12)
  br i1 %13, label %14, label %17

14:                                               ; preds = %10, %1
  %15 = getelementptr inbounds nuw %"class.pugi::xml_text", ptr %6, i32 0, i32 0
  %16 = load ptr, ptr %15, align 8
  store ptr %16, ptr %2, align 8
  br label %56

17:                                               ; preds = %10
  %18 = getelementptr inbounds nuw %"class.pugi::xml_text", ptr %6, i32 0, i32 0
  %19 = load ptr, ptr %18, align 8
  %20 = getelementptr inbounds nuw %"struct.pugi::xml_node_struct", ptr %19, i32 0, i32 0
  %21 = load i64, ptr %20, align 8
  %22 = and i64 %21, 15
  %23 = trunc i64 %22 to i32
  %24 = icmp eq i32 %23, 2
  br i1 %24, label %25, label %34

25:                                               ; preds = %17
  %26 = getelementptr inbounds nuw %"class.pugi::xml_text", ptr %6, i32 0, i32 0
  %27 = load ptr, ptr %26, align 8
  %28 = getelementptr inbounds nuw %"struct.pugi::xml_node_struct", ptr %27, i32 0, i32 2
  %29 = load ptr, ptr %28, align 8
  %30 = icmp ne ptr %29, null
  br i1 %30, label %31, label %34

31:                                               ; preds = %25
  %32 = getelementptr inbounds nuw %"class.pugi::xml_text", ptr %6, i32 0, i32 0
  %33 = load ptr, ptr %32, align 8
  store ptr %33, ptr %2, align 8
  br label %56

34:                                               ; preds = %25, %17
  call void @llvm.lifetime.start.p0(i64 8, ptr %4) #4
  %35 = getelementptr inbounds nuw %"class.pugi::xml_text", ptr %6, i32 0, i32 0
  %36 = load ptr, ptr %35, align 8
  %37 = getelementptr inbounds nuw %"struct.pugi::xml_node_struct", ptr %36, i32 0, i32 4
  %38 = load ptr, ptr %37, align 8
  store ptr %38, ptr %4, align 8
  br label %39

39:                                               ; preds = %49, %34
  %40 = load ptr, ptr %4, align 8
  %41 = icmp ne ptr %40, null
  br i1 %41, label %43, label %42

42:                                               ; preds = %39
  store i32 2, ptr %5, align 4
  br label %53

43:                                               ; preds = %39
  %44 = load ptr, ptr %4, align 8
  %45 = call noundef zeroext i1 @_ZN4pugi4impl12is_text_nodeEPNS_15xml_node_structE(ptr noundef %44)
  br i1 %45, label %46, label %48

46:                                               ; preds = %43
  %47 = load ptr, ptr %4, align 8
  store ptr %47, ptr %2, align 8
  store i32 1, ptr %5, align 4
  br label %53

48:                                               ; preds = %43
  br label %49

49:                                               ; preds = %48
  %50 = load ptr, ptr %4, align 8
  %51 = getelementptr inbounds nuw %"struct.pugi::xml_node_struct", ptr %50, i32 0, i32 6
  %52 = load ptr, ptr %51, align 8
  store ptr %52, ptr %4, align 8
  br label %39, !llvm.loop !96

53:                                               ; preds = %46, %42
  call void @llvm.lifetime.end.p0(i64 8, ptr %4) #4
  %54 = load i32, ptr %5, align 4
  switch i32 %54, label %58 [
    i32 2, label %55
    i32 1, label %56
  ]

55:                                               ; preds = %53
  store ptr null, ptr %2, align 8
  br label %56

56:                                               ; preds = %55, %53, %31, %14
  %57 = load ptr, ptr %2, align 8
  ret ptr %57

58:                                               ; preds = %53
  unreachable
}

; Function Attrs: inlinehint mustprogress nounwind uwtable
define linkonce_odr hidden void @_ZN4pugi8xml_textC2EPNS_15xml_node_structE(ptr noundef nonnull align 8 dereferenceable(8) %0, ptr noundef %1) unnamed_addr #3 comdat align 2 {
  %3 = alloca ptr, align 8
  %4 = alloca ptr, align 8
  store ptr %0, ptr %3, align 8
  store ptr %1, ptr %4, align 8
  %5 = load ptr, ptr %3, align 8
  %6 = getelementptr inbounds nuw %"class.pugi::xml_text", ptr %5, i32 0, i32 0
  %7 = load ptr, ptr %4, align 8
  store ptr %7, ptr %6, align 8
  ret void
}

; Function Attrs: inlinehint mustprogress uwtable
define linkonce_odr hidden noundef float @_ZNK4pugi8xml_text8as_floatEf(ptr noundef nonnull align 8 dereferenceable(8) %0, float noundef %1) #2 comdat align 2 {
  %3 = alloca float, align 4
  %4 = alloca ptr, align 8
  %5 = alloca float, align 4
  %6 = alloca ptr, align 8
  %7 = alloca i32, align 4
  %8 = alloca ptr, align 8
  store ptr %0, ptr %4, align 8
  store float %1, ptr %5, align 4
  %9 = load ptr, ptr %4, align 8
  call void @llvm.lifetime.start.p0(i64 8, ptr %6) #4
  %10 = call noundef ptr @_ZNK4pugi8xml_text5_dataEv(ptr noundef nonnull align 8 dereferenceable(8) %9)
  store ptr %10, ptr %6, align 8
  %11 = load ptr, ptr %6, align 8
  %12 = icmp ne ptr %11, null
  br i1 %12, label %15, label %13

13:                                               ; preds = %2
  %14 = load float, ptr %5, align 4
  store float %14, ptr %3, align 4
  store i32 1, ptr %7, align 4
  br label %28

15:                                               ; preds = %2
  call void @llvm.lifetime.start.p0(i64 8, ptr %8) #4
  %16 = load ptr, ptr %6, align 8
  %17 = getelementptr inbounds nuw %"struct.pugi::xml_node_struct", ptr %16, i32 0, i32 2
  %18 = load ptr, ptr %17, align 8
  store ptr %18, ptr %8, align 8
  %19 = load ptr, ptr %8, align 8
  %20 = icmp ne ptr %19, null
  br i1 %20, label %21, label %24

21:                                               ; preds = %15
  %22 = load ptr, ptr %8, align 8
  %23 = call noundef float @_ZN4pugi4impl15get_value_floatEPKc(ptr noundef %22)
  br label %26

24:                                               ; preds = %15
  %25 = load float, ptr %5, align 4
  br label %26

26:                                               ; preds = %24, %21
  %27 = phi float [ %23, %21 ], [ %25, %24 ]
  store float %27, ptr %3, align 4
  store i32 1, ptr %7, align 4
  call void @llvm.lifetime.end.p0(i64 8, ptr %8) #4
  br label %28

28:                                               ; preds = %26, %13
  call void @llvm.lifetime.end.p0(i64 8, ptr %6) #4
  %29 = load float, ptr %3, align 4
  ret float %29
}

; Function Attrs: inlinehint mustprogress uwtable
define linkonce_odr hidden ptr @_ZNK4pugi8xml_node4textEv(ptr noundef nonnull align 8 dereferenceable(8) %0) #2 comdat align 2 {
  %2 = alloca %"class.pugi::xml_text", align 8
  %3 = alloca ptr, align 8
  store ptr %0, ptr %3, align 8
  %4 = load ptr, ptr %3, align 8
  %5 = getelementptr inbounds nuw %"class.pugi::xml_node", ptr %4, i32 0, i32 0
  %6 = load ptr, ptr %5, align 8
  call void @_ZN4pugi8xml_textC2EPNS_15xml_node_structE(ptr noundef nonnull align 8 dereferenceable(8) %2, ptr noundef %6)
  %7 = getelementptr inbounds nuw %"class.pugi::xml_text", ptr %2, i32 0, i32 0
  %8 = load ptr, ptr %7, align 8
  ret ptr %8
}

; Function Attrs: inlinehint mustprogress nounwind uwtable
define linkonce_odr hidden void @_ZN4pugi8xml_nodeC2EPNS_15xml_node_structE(ptr noundef nonnull align 8 dereferenceable(8) %0, ptr noundef %1) unnamed_addr #3 comdat align 2 {
  %3 = alloca ptr, align 8
  %4 = alloca ptr, align 8
  store ptr %0, ptr %3, align 8
  store ptr %1, ptr %4, align 8
  %5 = load ptr, ptr %3, align 8
  %6 = getelementptr inbounds nuw %"class.pugi::xml_node", ptr %5, i32 0, i32 0
  %7 = load ptr, ptr %4, align 8
  store ptr %7, ptr %6, align 8
  ret void
}

; Function Attrs: inlinehint mustprogress nounwind uwtable
define linkonce_odr hidden noundef zeroext i1 @_ZN4pugi4impl8strequalEPKcS2_(ptr noundef %0, ptr noundef %1) #3 comdat {
  %3 = alloca ptr, align 8
  %4 = alloca ptr, align 8
  store ptr %0, ptr %3, align 8
  store ptr %1, ptr %4, align 8
  %5 = load ptr, ptr %3, align 8
  %6 = load ptr, ptr %4, align 8
  %7 = call i32 @strcmp(ptr noundef %5, ptr noundef %6) #28
  %8 = icmp eq i32 %7, 0
  ret i1 %8
}

; Function Attrs: inlinehint mustprogress nounwind uwtable
define linkonce_odr hidden void @_ZN4pugi8xml_nodeC2Ev(ptr noundef nonnull align 8 dereferenceable(8) %0) unnamed_addr #3 comdat align 2 {
  %2 = alloca ptr, align 8
  store ptr %0, ptr %2, align 8
  %3 = load ptr, ptr %2, align 8
  %4 = getelementptr inbounds nuw %"class.pugi::xml_node", ptr %3, i32 0, i32 0
  store ptr null, ptr %4, align 8
  ret void
}

; Function Attrs: inlinehint mustprogress uwtable
define linkonce_odr hidden noundef zeroext i1 @_ZN6Assimp10TXmlParserIN4pugi8xml_nodeEE14getValueAsRealERS2_Rf(ptr noundef nonnull align 8 dereferenceable(8) %0, ptr noundef nonnull align 4 dereferenceable(4) %1) #2 comdat align 2 {
  %3 = alloca i1, align 1
  %4 = alloca ptr, align 8
  %5 = alloca ptr, align 8
  %6 = alloca %"class.pugi::xml_text", align 8
  store ptr %0, ptr %4, align 8
  store ptr %1, ptr %5, align 8
  %7 = load ptr, ptr %4, align 8
  %8 = call noundef zeroext i1 @_ZNK4pugi8xml_node5emptyEv(ptr noundef nonnull align 8 dereferenceable(8) %7)
  br i1 %8, label %9, label %10

9:                                                ; preds = %2
  store i1 false, ptr %3, align 1
  br label %16

10:                                               ; preds = %2
  call void @llvm.lifetime.start.p0(i64 8, ptr %6) #4
  %11 = load ptr, ptr %4, align 8
  %12 = call ptr @_ZNK4pugi8xml_node4textEv(ptr noundef nonnull align 8 dereferenceable(8) %11)
  %13 = getelementptr inbounds nuw %"class.pugi::xml_text", ptr %6, i32 0, i32 0
  store ptr %12, ptr %13, align 8
  %14 = call noundef float @_ZNK4pugi8xml_text8as_floatEf(ptr noundef nonnull align 8 dereferenceable(8) %6, float noundef 0.000000e+00)
  %15 = load ptr, ptr %5, align 8
  store float %14, ptr %15, align 4
  call void @llvm.lifetime.end.p0(i64 8, ptr %6) #4
  store i1 true, ptr %3, align 1
  br label %16

16:                                               ; preds = %10, %9
  %17 = load i1, ptr %3, align 1
  ret i1 %17
}

; Function Attrs: inlinehint mustprogress nounwind uwtable
define linkonce_odr hidden noundef zeroext i1 @_ZNK4pugi8xml_node5emptyEv(ptr noundef nonnull align 8 dereferenceable(8) %0) #3 comdat align 2 {
  %2 = alloca ptr, align 8
  store ptr %0, ptr %2, align 8
  %3 = load ptr, ptr %2, align 8
  %4 = getelementptr inbounds nuw %"class.pugi::xml_node", ptr %3, i32 0, i32 0
  %5 = load ptr, ptr %4, align 8
  %6 = icmp ne ptr %5, null
  %7 = xor i1 %6, true
  ret i1 %7
}

; Function Attrs: inlinehint mustprogress uwtable
define linkonce_odr hidden ptr @_ZNK4pugi8xml_node5childEPKc(ptr noundef nonnull align 8 dereferenceable(8) %0, ptr noundef %1) #2 comdat align 2 {
  %3 = alloca %"class.pugi::xml_node", align 8
  %4 = alloca ptr, align 8
  %5 = alloca ptr, align 8
  %6 = alloca ptr, align 8
  %7 = alloca i32, align 4
  %8 = alloca ptr, align 8
  store ptr %0, ptr %4, align 8
  store ptr %1, ptr %5, align 8
  %9 = load ptr, ptr %4, align 8
  %10 = getelementptr inbounds nuw %"class.pugi::xml_node", ptr %9, i32 0, i32 0
  %11 = load ptr, ptr %10, align 8
  %12 = icmp ne ptr %11, null
  br i1 %12, label %14, label %13

13:                                               ; preds = %2
  call void @_ZN4pugi8xml_nodeC2Ev(ptr noundef nonnull align 8 dereferenceable(8) %3)
  br label %46

14:                                               ; preds = %2
  call void @llvm.lifetime.start.p0(i64 8, ptr %6) #4
  %15 = getelementptr inbounds nuw %"class.pugi::xml_node", ptr %9, i32 0, i32 0
  %16 = load ptr, ptr %15, align 8
  %17 = getelementptr inbounds nuw %"struct.pugi::xml_node_struct", ptr %16, i32 0, i32 4
  %18 = load ptr, ptr %17, align 8
  store ptr %18, ptr %6, align 8
  br label %19

19:                                               ; preds = %39, %14
  %20 = load ptr, ptr %6, align 8
  %21 = icmp ne ptr %20, null
  br i1 %21, label %23, label %22

22:                                               ; preds = %19
  store i32 2, ptr %7, align 4
  br label %43

23:                                               ; preds = %19
  call void @llvm.lifetime.start.p0(i64 8, ptr %8) #4
  %24 = load ptr, ptr %6, align 8
  %25 = getelementptr inbounds nuw %"struct.pugi::xml_node_struct", ptr %24, i32 0, i32 1
  %26 = load ptr, ptr %25, align 8
  store ptr %26, ptr %8, align 8
  %27 = load ptr, ptr %8, align 8
  %28 = icmp ne ptr %27, null
  br i1 %28, label %29, label %35

29:                                               ; preds = %23
  %30 = load ptr, ptr %5, align 8
  %31 = load ptr, ptr %8, align 8
  %32 = call noundef zeroext i1 @_ZN4pugi4impl8strequalEPKcS2_(ptr noundef %30, ptr noundef %31)
  br i1 %32, label %33, label %35

33:                                               ; preds = %29
  %34 = load ptr, ptr %6, align 8
  call void @_ZN4pugi8xml_nodeC2EPNS_15xml_node_structE(ptr noundef nonnull align 8 dereferenceable(8) %3, ptr noundef %34)
  store i32 1, ptr %7, align 4
  br label %36

35:                                               ; preds = %29, %23
  store i32 0, ptr %7, align 4
  br label %36

36:                                               ; preds = %35, %33
  call void @llvm.lifetime.end.p0(i64 8, ptr %8) #4
  %37 = load i32, ptr %7, align 4
  switch i32 %37, label %43 [
    i32 0, label %38
  ]

38:                                               ; preds = %36
  br label %39

39:                                               ; preds = %38
  %40 = load ptr, ptr %6, align 8
  %41 = getelementptr inbounds nuw %"struct.pugi::xml_node_struct", ptr %40, i32 0, i32 6
  %42 = load ptr, ptr %41, align 8
  store ptr %42, ptr %6, align 8
  br label %19, !llvm.loop !4

43:                                               ; preds = %36, %22
  call void @llvm.lifetime.end.p0(i64 8, ptr %6) #4
  %44 = load i32, ptr %7, align 4
  switch i32 %44, label %49 [
    i32 2, label %45
    i32 1, label %46
  ]

45:                                               ; preds = %43
  call void @_ZN4pugi8xml_nodeC2Ev(ptr noundef nonnull align 8 dereferenceable(8) %3)
  br label %46

46:                                               ; preds = %45, %43, %13
  %47 = getelementptr inbounds nuw %"class.pugi::xml_node", ptr %3, i32 0, i32 0
  %48 = load ptr, ptr %47, align 8
  ret ptr %48

49:                                               ; preds = %43
  unreachable
}

; Function Attrs: mustprogress uwtable
define hidden void @_ZN6Assimp13ColladaParser15ReadEffectFloatERN4pugi8xml_nodeERf(ptr noundef nonnull align 8 dereferenceable(772) %0, ptr noundef nonnull align 8 dereferenceable(8) %1, ptr noundef nonnull align 4 dereferenceable(4) %2) #5 align 2 {
  %4 = alloca ptr, align 8
  %5 = alloca ptr, align 8
  %6 = alloca ptr, align 8
  %7 = alloca %"class.pugi::xml_node", align 8
  %8 = alloca i32, align 4
  store ptr %0, ptr %4, align 8
  store ptr %1, ptr %5, align 8
  store ptr %2, ptr %6, align 8
  %9 = load ptr, ptr %6, align 8
  store float 0.000000e+00, ptr %9, align 4
  call void @llvm.lifetime.start.p0(i64 8, ptr %7) #4
  %10 = load ptr, ptr %5, align 8
  %11 = call ptr @_ZNK4pugi8xml_node5childEPKc(ptr noundef nonnull align 8 dereferenceable(8) %10, ptr noundef @.str.171)
  %12 = getelementptr inbounds nuw %"class.pugi::xml_node", ptr %7, i32 0, i32 0
  store ptr %11, ptr %12, align 8
  %13 = call noundef zeroext i1 @_ZNK4pugi8xml_node5emptyEv(ptr noundef nonnull align 8 dereferenceable(8) %7)
  br i1 %13, label %14, label %15

14:                                               ; preds = %3
  store i32 1, ptr %8, align 4
  br label %18

15:                                               ; preds = %3
  %16 = load ptr, ptr %6, align 8
  %17 = call noundef zeroext i1 @_ZN6Assimp10TXmlParserIN4pugi8xml_nodeEE14getValueAsRealERS2_Rf(ptr noundef nonnull align 8 dereferenceable(8) %7, ptr noundef nonnull align 4 dereferenceable(4) %16)
  store i32 0, ptr %8, align 4
  br label %18

18:                                               ; preds = %15, %14
  call void @llvm.lifetime.end.p0(i64 8, ptr %7) #4
  %19 = load i32, ptr %8, align 4
  switch i32 %19, label %21 [
    i32 0, label %20
    i32 1, label %20
  ]

20:                                               ; preds = %18, %18
  ret void

21:                                               ; preds = %18
  unreachable
}