; Function Attrs: mustprogress nofree nounwind uwtable
define hidden void @_ZN6Assimp13ColladaParser15ReadEffectFloatERN4pugi8xml_nodeERf(ptr nonnull readnone align 8 captures(none) %0, ptr noundef nonnull readonly align 8 captures(none) dereferenceable(8) %1, ptr noundef nonnull writeonly align 4 captures(none) dereferenceable(4) initializes((0, 4)) %2) local_unnamed_addr #19 align 2 {
  store float 0.000000e+00, ptr %2, align 4
  %4 = load ptr, ptr %1, align 8
  %.not.i = icmp eq ptr %4, null
  br i1 %.not.i, label %_ZNK4pugi8xml_node5childEPKc.exit.thread, label %5

5:                                                ; preds = %3
  %6 = getelementptr inbounds nuw i8, ptr %4, i64 32
  %.017.i = load ptr, ptr %6, align 8
  %.not1218.i = icmp eq ptr %.017.i, null
  br i1 %.not1218.i, label %_ZNK4pugi8xml_node5childEPKc.exit.thread, label %.lr.ph.i

.lr.ph.i:                                         ; preds = %5, %12
  %.019.i = phi ptr [ %.0.i, %12 ], [ %.017.i, %5 ]
  %7 = getelementptr inbounds nuw i8, ptr %.019.i, i64 8
  %8 = load ptr, ptr %7, align 8
  %.not13.i = icmp eq ptr %8, null
  br i1 %.not13.i, label %12, label %9

9:                                                ; preds = %.lr.ph.i
  %10 = tail call i32 @strcmp(ptr noundef nonnull dereferenceable(6) @.str.171, ptr noundef nonnull dereferenceable(1) %8) #38
  %11 = icmp eq i32 %10, 0
  br i1 %11, label %_ZNK4pugi8xml_node5childEPKc.exit, label %12

12:                                               ; preds = %9, %.lr.ph.i
  %13 = getelementptr inbounds nuw i8, ptr %.019.i, i64 48
  %.0.i = load ptr, ptr %13, align 8
  %.not12.i = icmp eq ptr %.0.i, null
  br i1 %.not12.i, label %_ZNK4pugi8xml_node5childEPKc.exit.thread, label %.lr.ph.i, !llvm.loop !5

_ZNK4pugi8xml_node5childEPKc.exit:                ; preds = %9
  %14 = load i64, ptr %.019.i, align 8
  %15 = trunc i64 %14 to i32
  %16 = and i32 %15, 15
  %17 = add nsw i32 %16, -3
  %18 = icmp ult i32 %17, 2
  br i1 %18, label %_ZNK4pugi8xml_text5_dataEv.exit.i.i, label %19

19:                                               ; preds = %_ZNK4pugi8xml_node5childEPKc.exit
  %20 = and i64 %14, 15
  %21 = icmp eq i64 %20, 2
  br i1 %21, label %22, label %25

22:                                               ; preds = %19
  %23 = getelementptr inbounds nuw i8, ptr %.019.i, i64 16
  %24 = load ptr, ptr %23, align 8
  %.not9.i.i.i = icmp eq ptr %24, null
  br i1 %.not9.i.i.i, label %25, label %_ZNK4pugi8xml_text5_dataEv.exit.i.i

25:                                               ; preds = %22, %19
  %26 = getelementptr inbounds nuw i8, ptr %.019.i, i64 32
  %.0611.i.i.i = load ptr, ptr %26, align 8
  %.not1012.i.i.i = icmp eq ptr %.0611.i.i.i, null
  br i1 %.not1012.i.i.i, label %_ZN6Assimp10TXmlParserIN4pugi8xml_nodeEE14getValueAsRealERS2_Rf.exit, label %.lr.ph.i.i.i

.lr.ph.i.i.i:                                     ; preds = %25, %32
  %.0613.i.i.i = phi ptr [ %.06.i.i.i, %32 ], [ %.0611.i.i.i, %25 ]
  %27 = load i64, ptr %.0613.i.i.i, align 8
  %28 = trunc i64 %27 to i32
  %29 = and i32 %28, 15
  %30 = add nsw i32 %29, -3
  %31 = icmp ult i32 %30, 2
  br i1 %31, label %_ZNK4pugi8xml_text5_dataEv.exit.i.i, label %32

32:                                               ; preds = %.lr.ph.i.i.i
  %33 = getelementptr inbounds nuw i8, ptr %.0613.i.i.i, i64 48
  %.06.i.i.i = load ptr, ptr %33, align 8
  %.not10.i.i.i = icmp eq ptr %.06.i.i.i, null
  br i1 %.not10.i.i.i, label %_ZN6Assimp10TXmlParserIN4pugi8xml_nodeEE14getValueAsRealERS2_Rf.exit, label %.lr.ph.i.i.i, !llvm.loop !23

_ZNK4pugi8xml_text5_dataEv.exit.i.i:              ; preds = %.lr.ph.i.i.i, %22, %_ZNK4pugi8xml_node5childEPKc.exit
  %.07.i.i.i = phi ptr [ %.019.i, %22 ], [ %.019.i, %_ZNK4pugi8xml_node5childEPKc.exit ], [ %.0613.i.i.i, %.lr.ph.i.i.i ]
  %34 = getelementptr inbounds nuw i8, ptr %.07.i.i.i, i64 16
  %35 = load ptr, ptr %34, align 8
  %.not10.i.i = icmp eq ptr %35, null
  br i1 %.not10.i.i, label %_ZN6Assimp10TXmlParserIN4pugi8xml_nodeEE14getValueAsRealERS2_Rf.exit, label %36

36:                                               ; preds = %_ZNK4pugi8xml_text5_dataEv.exit.i.i
  %37 = tail call double @strtod(ptr noundef nonnull captures(none) %35, ptr noundef null) #35
  %38 = fptrunc double %37 to float
  br label %_ZN6Assimp10TXmlParserIN4pugi8xml_nodeEE14getValueAsRealERS2_Rf.exit

_ZN6Assimp10TXmlParserIN4pugi8xml_nodeEE14getValueAsRealERS2_Rf.exit: ; preds = %32, %25, %_ZNK4pugi8xml_text5_dataEv.exit.i.i, %36
  %.0.i.i = phi float [ %38, %36 ], [ 0.000000e+00, %_ZNK4pugi8xml_text5_dataEv.exit.i.i ], [ 0.000000e+00, %25 ], [ 0.000000e+00, %32 ]
  store float %.0.i.i, ptr %2, align 4
  br label %_ZNK4pugi8xml_node5childEPKc.exit.thread

_ZNK4pugi8xml_node5childEPKc.exit.thread:         ; preds = %12, %5, %3, %_ZN6Assimp10TXmlParserIN4pugi8xml_nodeEE14getValueAsRealERS2_Rf.exit
  ret void
}